
key_led.elf:     file format elf32-littlearm

Disassembly of section .text:

00000000 <_start>:
   0:	e3a00453 	mov	r0, #1392508928	; 0x53000000
   4:	e3a01000 	mov	r1, #0	; 0x0
   8:	e5801000 	str	r1, [r0]
   c:	e3a0da01 	mov	sp, #4096	; 0x1000
  10:	eb00000c 	bl	48 <main>

00000014 <halt>:
  14:	eafffffe 	b	14 <halt>

00000018 <delay>:
  18:	e1a0c00d 	mov	ip, sp
  1c:	e92dd800 	stmdb	sp!, {fp, ip, lr, pc}
  20:	e24cb004 	sub	fp, ip, #4	; 0x4
  24:	e24dd004 	sub	sp, sp, #4	; 0x4
  28:	e50b0010 	str	r0, [fp, #-16]
  2c:	e51b3010 	ldr	r3, [fp, #-16]
  30:	e2433001 	sub	r3, r3, #1	; 0x1
  34:	e50b3010 	str	r3, [fp, #-16]
  38:	e3730001 	cmn	r3, #1	; 0x1
  3c:	0a000000 	beq	44 <delay+0x2c>
  40:	eafffff9 	b	2c <delay+0x14>
  44:	e89da808 	ldmia	sp, {r3, fp, sp, pc}

00000048 <main>:
  48:	e1a0c00d 	mov	ip, sp
  4c:	e92dd800 	stmdb	sp!, {fp, ip, lr, pc}
  50:	e24cb004 	sub	fp, ip, #4	; 0x4
  54:	e24dd010 	sub	sp, sp, #16	; 0x10
  58:	e3a03456 	mov	r3, #1442840576	; 0x56000000
  5c:	e2833050 	add	r3, r3, #80	; 0x50
  60:	e50b3010 	str	r3, [fp, #-16]
  64:	e3a03456 	mov	r3, #1442840576	; 0x56000000
  68:	e2833054 	add	r3, r3, #84	; 0x54
  6c:	e50b3014 	str	r3, [fp, #-20]
  70:	e3a03456 	mov	r3, #1442840576	; 0x56000000
  74:	e2833060 	add	r3, r3, #96	; 0x60
  78:	e50b3018 	str	r3, [fp, #-24]
  7c:	e3a03456 	mov	r3, #1442840576	; 0x56000000
  80:	e2833064 	add	r3, r3, #100	; 0x64
  84:	e50b301c 	str	r3, [fp, #-28]
  88:	e51b2010 	ldr	r2, [fp, #-16]
  8c:	e51b3010 	ldr	r3, [fp, #-16]
  90:	e5933000 	ldr	r3, [r3]
  94:	e3c33033 	bic	r3, r3, #51	; 0x33
  98:	e5823000 	str	r3, [r2]
  9c:	e51b2010 	ldr	r2, [fp, #-16]
  a0:	e51b3010 	ldr	r3, [fp, #-16]
  a4:	e5933000 	ldr	r3, [r3]
  a8:	e5823000 	str	r3, [r2]
  ac:	e51b2018 	ldr	r2, [fp, #-24]
  b0:	e51b3018 	ldr	r3, [fp, #-24]
  b4:	e5933000 	ldr	r3, [r3]
  b8:	e3c330c0 	bic	r3, r3, #192	; 0xc0
  bc:	e5823000 	str	r3, [r2]
  c0:	e51b2018 	ldr	r2, [fp, #-24]
  c4:	e51b3018 	ldr	r3, [fp, #-24]
  c8:	e5933000 	ldr	r3, [r3]
  cc:	e5823000 	str	r3, [r2]
  d0:	e51b2010 	ldr	r2, [fp, #-16]
  d4:	e51b3010 	ldr	r3, [fp, #-16]
  d8:	e5933000 	ldr	r3, [r3]
  dc:	e3c33c3f 	bic	r3, r3, #16128	; 0x3f00
  e0:	e5823000 	str	r3, [r2]
  e4:	e51b2010 	ldr	r2, [fp, #-16]
  e8:	e51b3010 	ldr	r3, [fp, #-16]
  ec:	e5933000 	ldr	r3, [r3]
  f0:	e3833c15 	orr	r3, r3, #5376	; 0x1500
  f4:	e5823000 	str	r3, [r2]
  f8:	e51b2014 	ldr	r2, [fp, #-20]
  fc:	e51b3014 	ldr	r3, [fp, #-20]
 100:	e5933000 	ldr	r3, [r3]
 104:	e3833040 	orr	r3, r3, #64	; 0x40
 108:	e5823000 	str	r3, [r2]
 10c:	eafffff9 	b	f8 <main+0xb0>

00000110 <mainV4>:
 110:	e1a0c00d 	mov	ip, sp
 114:	e92dd800 	stmdb	sp!, {fp, ip, lr, pc}
 118:	e24cb004 	sub	fp, ip, #4	; 0x4
 11c:	e24dd010 	sub	sp, sp, #16	; 0x10
 120:	e3a03456 	mov	r3, #1442840576	; 0x56000000
 124:	e2833050 	add	r3, r3, #80	; 0x50
 128:	e50b3010 	str	r3, [fp, #-16]
 12c:	e3a03456 	mov	r3, #1442840576	; 0x56000000
 130:	e2833054 	add	r3, r3, #84	; 0x54
 134:	e50b3014 	str	r3, [fp, #-20]
 138:	e3a03456 	mov	r3, #1442840576	; 0x56000000
 13c:	e2833060 	add	r3, r3, #96	; 0x60
 140:	e50b3018 	str	r3, [fp, #-24]
 144:	e3a03456 	mov	r3, #1442840576	; 0x56000000
 148:	e2833064 	add	r3, r3, #100	; 0x64
 14c:	e50b301c 	str	r3, [fp, #-28]
 150:	e51b2010 	ldr	r2, [fp, #-16]
 154:	e51b3010 	ldr	r3, [fp, #-16]
 158:	e5933000 	ldr	r3, [r3]
 15c:	e3c33033 	bic	r3, r3, #51	; 0x33
 160:	e5823000 	str	r3, [r2]
 164:	e51b2010 	ldr	r2, [fp, #-16]
 168:	e51b3010 	ldr	r3, [fp, #-16]
 16c:	e5933000 	ldr	r3, [r3]
 170:	e5823000 	str	r3, [r2]
 174:	e51b2018 	ldr	r2, [fp, #-24]
 178:	e51b3018 	ldr	r3, [fp, #-24]
 17c:	e5933000 	ldr	r3, [r3]
 180:	e3c330c0 	bic	r3, r3, #192	; 0xc0
 184:	e5823000 	str	r3, [r2]
 188:	e51b2018 	ldr	r2, [fp, #-24]
 18c:	e51b3018 	ldr	r3, [fp, #-24]
 190:	e5933000 	ldr	r3, [r3]
 194:	e5823000 	str	r3, [r2]
 198:	e51b2010 	ldr	r2, [fp, #-16]
 19c:	e51b3010 	ldr	r3, [fp, #-16]
 1a0:	e5933000 	ldr	r3, [r3]
 1a4:	e3c33c3f 	bic	r3, r3, #16128	; 0x3f00
 1a8:	e5823000 	str	r3, [r2]
 1ac:	e51b2010 	ldr	r2, [fp, #-16]
 1b0:	e51b3010 	ldr	r3, [fp, #-16]
 1b4:	e5933000 	ldr	r3, [r3]
 1b8:	e3833c15 	orr	r3, r3, #5376	; 0x1500
 1bc:	e5823000 	str	r3, [r2]
 1c0:	e51b2014 	ldr	r2, [fp, #-20]
 1c4:	e51b3014 	ldr	r3, [fp, #-20]
 1c8:	e5933000 	ldr	r3, [r3]
 1cc:	e3c33040 	bic	r3, r3, #64	; 0x40
 1d0:	e5823000 	str	r3, [r2]
 1d4:	e51b2014 	ldr	r2, [fp, #-20]
 1d8:	e51b3014 	ldr	r3, [fp, #-20]
 1dc:	e5933000 	ldr	r3, [r3]
 1e0:	e3833040 	orr	r3, r3, #64	; 0x40
 1e4:	e5823000 	str	r3, [r2]
 1e8:	eafffff4 	b	1c0 <mainV4+0xb0>

000001ec <mainV3>:
 1ec:	e1a0c00d 	mov	ip, sp
 1f0:	e92dd800 	stmdb	sp!, {fp, ip, lr, pc}
 1f4:	e24cb004 	sub	fp, ip, #4	; 0x4
 1f8:	e24dd014 	sub	sp, sp, #20	; 0x14
 1fc:	e3a03456 	mov	r3, #1442840576	; 0x56000000
 200:	e2833050 	add	r3, r3, #80	; 0x50
 204:	e50b3010 	str	r3, [fp, #-16]
 208:	e3a03456 	mov	r3, #1442840576	; 0x56000000
 20c:	e2833054 	add	r3, r3, #84	; 0x54
 210:	e50b3014 	str	r3, [fp, #-20]
 214:	e3a03456 	mov	r3, #1442840576	; 0x56000000
 218:	e2833060 	add	r3, r3, #96	; 0x60
 21c:	e50b3018 	str	r3, [fp, #-24]
 220:	e3a03456 	mov	r3, #1442840576	; 0x56000000
 224:	e2833064 	add	r3, r3, #100	; 0x64
 228:	e50b301c 	str	r3, [fp, #-28]
 22c:	e51b2010 	ldr	r2, [fp, #-16]
 230:	e51b3010 	ldr	r3, [fp, #-16]
 234:	e5933000 	ldr	r3, [r3]
 238:	e3c33033 	bic	r3, r3, #51	; 0x33
 23c:	e5823000 	str	r3, [r2]
 240:	e51b2010 	ldr	r2, [fp, #-16]
 244:	e51b3010 	ldr	r3, [fp, #-16]
 248:	e5933000 	ldr	r3, [r3]
 24c:	e5823000 	str	r3, [r2]
 250:	e51b2018 	ldr	r2, [fp, #-24]
 254:	e51b3018 	ldr	r3, [fp, #-24]
 258:	e5933000 	ldr	r3, [r3]
 25c:	e3c330c0 	bic	r3, r3, #192	; 0xc0
 260:	e5823000 	str	r3, [r2]
 264:	e51b2018 	ldr	r2, [fp, #-24]
 268:	e51b3018 	ldr	r3, [fp, #-24]
 26c:	e5933000 	ldr	r3, [r3]
 270:	e5823000 	str	r3, [r2]
 274:	e51b2010 	ldr	r2, [fp, #-16]
 278:	e51b3010 	ldr	r3, [fp, #-16]
 27c:	e5933000 	ldr	r3, [r3]
 280:	e3c33c3f 	bic	r3, r3, #16128	; 0x3f00
 284:	e5823000 	str	r3, [r2]
 288:	e51b2010 	ldr	r2, [fp, #-16]
 28c:	e51b3010 	ldr	r3, [fp, #-16]
 290:	e5933000 	ldr	r3, [r3]
 294:	e3833b05 	orr	r3, r3, #5120	; 0x1400
 298:	e3833010 	orr	r3, r3, #16	; 0x10
 29c:	e5823000 	str	r3, [r2]
 2a0:	e3a03000 	mov	r3, #0	; 0x0
 2a4:	e50b3020 	str	r3, [fp, #-32]
 2a8:	e3a03000 	mov	r3, #0	; 0x0
 2ac:	e1a00003 	mov	r0, r3
 2b0:	e24bd00c 	sub	sp, fp, #12	; 0xc
 2b4:	e89da800 	ldmia	sp, {fp, sp, pc}

000002b8 <mainV2>:
 2b8:	e1a0c00d 	mov	ip, sp
 2bc:	e92dd800 	stmdb	sp!, {fp, ip, lr, pc}
 2c0:	e24cb004 	sub	fp, ip, #4	; 0x4
 2c4:	e24dd004 	sub	sp, sp, #4	; 0x4
 2c8:	e3a02456 	mov	r2, #1442840576	; 0x56000000
 2cc:	e2822050 	add	r2, r2, #80	; 0x50
 2d0:	e3a03456 	mov	r3, #1442840576	; 0x56000000
 2d4:	e2833050 	add	r3, r3, #80	; 0x50
 2d8:	e5933000 	ldr	r3, [r3]
 2dc:	e3c33033 	bic	r3, r3, #51	; 0x33
 2e0:	e5823000 	str	r3, [r2]
 2e4:	e3a02456 	mov	r2, #1442840576	; 0x56000000
 2e8:	e2822050 	add	r2, r2, #80	; 0x50
 2ec:	e3a03456 	mov	r3, #1442840576	; 0x56000000
 2f0:	e2833050 	add	r3, r3, #80	; 0x50
 2f4:	e5933000 	ldr	r3, [r3]
 2f8:	e5823000 	str	r3, [r2]
 2fc:	e3a02456 	mov	r2, #1442840576	; 0x56000000
 300:	e2822060 	add	r2, r2, #96	; 0x60
 304:	e3a03456 	mov	r3, #1442840576	; 0x56000000
 308:	e2833060 	add	r3, r3, #96	; 0x60
 30c:	e5933000 	ldr	r3, [r3]
 310:	e3c330c0 	bic	r3, r3, #192	; 0xc0
 314:	e5823000 	str	r3, [r2]
 318:	e3a02456 	mov	r2, #1442840576	; 0x56000000
 31c:	e2822060 	add	r2, r2, #96	; 0x60
 320:	e3a03456 	mov	r3, #1442840576	; 0x56000000
 324:	e2833060 	add	r3, r3, #96	; 0x60
 328:	e5933000 	ldr	r3, [r3]
 32c:	e5823000 	str	r3, [r2]
 330:	e3a02456 	mov	r2, #1442840576	; 0x56000000
 334:	e2822050 	add	r2, r2, #80	; 0x50
 338:	e3a03456 	mov	r3, #1442840576	; 0x56000000
 33c:	e2833050 	add	r3, r3, #80	; 0x50
 340:	e5933000 	ldr	r3, [r3]
 344:	e3c33c3f 	bic	r3, r3, #16128	; 0x3f00
 348:	e5823000 	str	r3, [r2]
 34c:	e3a02456 	mov	r2, #1442840576	; 0x56000000
 350:	e2822050 	add	r2, r2, #80	; 0x50
 354:	e3a03456 	mov	r3, #1442840576	; 0x56000000
 358:	e2833050 	add	r3, r3, #80	; 0x50
 35c:	e5933000 	ldr	r3, [r3]
 360:	e3833b05 	orr	r3, r3, #5120	; 0x1400
 364:	e3833010 	orr	r3, r3, #16	; 0x10
 368:	e5823000 	str	r3, [r2]
 36c:	e3a03000 	mov	r3, #0	; 0x0
 370:	e50b3010 	str	r3, [fp, #-16]
 374:	e3a02456 	mov	r2, #1442840576	; 0x56000000
 378:	e2822054 	add	r2, r2, #84	; 0x54
 37c:	e3a03456 	mov	r3, #1442840576	; 0x56000000
 380:	e2833054 	add	r3, r3, #84	; 0x54
 384:	e5933000 	ldr	r3, [r3]
 388:	e3c33040 	bic	r3, r3, #64	; 0x40
 38c:	e5823000 	str	r3, [r2]
 390:	e3a02456 	mov	r2, #1442840576	; 0x56000000
 394:	e2822054 	add	r2, r2, #84	; 0x54
 398:	e3a03456 	mov	r3, #1442840576	; 0x56000000
 39c:	e2833054 	add	r3, r3, #84	; 0x54
 3a0:	e5933000 	ldr	r3, [r3]
 3a4:	e5823000 	str	r3, [r2]
 3a8:	eafffff1 	b	374 <mainV2+0xbc>